; Function Attrs: mustprogress uwtable
define internal noundef nonnull ptr @_ZN7testing12_GLOBAL__N_124ParameterizedTestFactoryIN11opencv_test25DNNTestNetwork_YOLOX_TestEE10CreateTestEv(ptr noundef nonnull align 8 dereferenceable(16) %0) unnamed_addr #4 align 2 personality ptr @__gxx_personality_v0 {
  %2 = getelementptr inbounds nuw i8, ptr %0, i64 8
  store ptr %2, ptr @_ZN7testing8internal12g_parameter_E, align 8, !tbaa !265
  %3 = tail call noalias noundef nonnull dereferenceable(288) ptr @_Znwm(i64 noundef 288) #31
  invoke void @_ZN4perf8TestBaseC2Ev(ptr noundef nonnull align 8 dereferenceable(281) %3)
          to label %.noexc unwind label %22

.noexc:                                           ; preds = %1
  %4 = getelementptr inbounds nuw i8, ptr %3, i64 248
  store ptr getelementptr inbounds nuw inrange(-16, 56) (i8, ptr @_ZTVN11opencv_test14DNNTestNetworkE, i64 16), ptr %3, align 8, !tbaa !19
  store ptr getelementptr inbounds nuw inrange(-16, 16) (i8, ptr @_ZTVN11opencv_test14DNNTestNetworkE, i64 88), ptr %4, align 8, !tbaa !19
  %5 = getelementptr inbounds nuw i8, ptr %3, i64 264
  invoke void @_ZN2cv3dnn14dnn4_v202412233NetC1Ev(ptr noundef nonnull align 8 dereferenceable(16) %5)
          to label %6 unwind label %13

6:                                                ; preds = %.noexc
  %7 = invoke noundef nonnull align 4 dereferenceable(8) ptr @_ZNK7testing18WithParamInterfaceISt5tupleIJN2cv3dnn14dnn4_v202412237BackendENS4_6TargetEEEE8GetParamEv(ptr noundef nonnull align 8 dereferenceable(8) %4)
          to label %8 unwind label %15

8:                                                ; preds = %6
  %9 = getelementptr inbounds nuw i8, ptr %7, i64 4
  %10 = load i32, ptr %9, align 4, !tbaa !267
  %11 = getelementptr inbounds nuw i8, ptr %3, i64 256
  store i32 %10, ptr %11, align 8, !tbaa !74
  %12 = invoke noundef nonnull align 4 dereferenceable(8) ptr @_ZNK7testing18WithParamInterfaceISt5tupleIJN2cv3dnn14dnn4_v202412237BackendENS4_6TargetEEEE8GetParamEv(ptr noundef nonnull align 8 dereferenceable(8) %4)
          to label %18 unwind label %15

13:                                               ; preds = %.noexc
  %14 = landingpad { ptr, i32 }
          cleanup
  br label %17

15:                                               ; preds = %8, %6
  %16 = landingpad { ptr, i32 }
          cleanup
  tail call void @_ZN2cv3dnn14dnn4_v202412233NetD1Ev(ptr noundef nonnull align 8 dereferenceable(16) %5) #30
  br label %17

17:                                               ; preds = %15, %13
  %.pn.i.i = phi { ptr, i32 } [ %16, %15 ], [ %14, %13 ]
  tail call void @_ZN4perf17TestBaseWithParamISt5tupleIJN2cv3dnn14dnn4_v202412237BackendENS4_6TargetEEEED2Ev(ptr noundef nonnull align 8 dereferenceable(281) %3) #30
  br label %.body

18:                                               ; preds = %8
  %19 = load i32, ptr %12, align 4, !tbaa !268
  %20 = getelementptr inbounds nuw i8, ptr %3, i64 260
  store i32 %19, ptr %20, align 4, !tbaa !96
  store ptr getelementptr inbounds nuw inrange(-16, 56) (i8, ptr @_ZTVN11opencv_test25DNNTestNetwork_YOLOX_TestE, i64 16), ptr %3, align 8, !tbaa !19
  store ptr getelementptr inbounds nuw inrange(-16, 16) (i8, ptr @_ZTVN11opencv_test25DNNTestNetwork_YOLOX_TestE, i64 88), ptr %4, align 8, !tbaa !19
  %21 = getelementptr inbounds nuw i8, ptr %3, i64 280
  store i8 0, ptr %21, align 8, !tbaa !124
  ret ptr %3

22:                                               ; preds = %1
  %23 = landingpad { ptr, i32 }
          cleanup
  br label %.body

.body:                                            ; preds = %17, %22
  %eh.lpad-body = phi { ptr, i32 } [ %23, %22 ], [ %.pn.i.i, %17 ]
  tail call void @_ZdlPv(ptr noundef nonnull %3) #32
  resume { ptr, i32 } %eh.lpad-body
}